target datalayout = "e-m:e-p270:32:32-p271:32:32-p272:64:64-i64:64-i128:128-f80:128-n8:16:32:64-S128"
target triple = "x86_64-pc-linux-gnu"

%struct.Mio_LibraryStruct_t_ = type { ptr, i32, ptr, ptr, ptr, ptr, ptr, ptr, ptr, ptr, ptr, ptr, ptr, ptr, ptr, ptr, i32, i32, i32, ptr, ptr, ptr, i32, ptr, ptr, ptr, ptr, [3 x ptr], [3 x ptr] }
%struct.Mio_GateStruct_t_ = type { ptr, double, ptr, ptr, ptr, ptr, ptr, ptr, i32, i32, i32, i32, double, ptr, ptr, %union.anon, i32 }
%union.anon = type { i64 }

; Function Attrs: nounwind uwtable
define ptr @Mio_GateReadNext(ptr noundef %0) #0 {
  %2 = alloca ptr, align 8
  store ptr %0, ptr %2, align 8, !tbaa !28
  %3 = load ptr, ptr %2, align 8, !tbaa !28
  %4 = getelementptr inbounds nuw %struct.Mio_GateStruct_t_, ptr %3, i32 0, i32 6
  %5 = load ptr, ptr %4, align 8, !tbaa !50
  ret ptr %5
}

; Function Attrs: nounwind uwtable
define ptr @Mio_LibraryReadGates(ptr noundef %0) #0 {
  %2 = alloca ptr, align 8
  store ptr %0, ptr %2, align 8, !tbaa !3
  %3 = load ptr, ptr %2, align 8, !tbaa !3
  %4 = getelementptr inbounds nuw %struct.Mio_LibraryStruct_t_, ptr %3, i32 0, i32 4
  %5 = load ptr, ptr %4, align 8, !tbaa !24
  ret ptr %5
}

; Function Attrs: nounwind uwtable
define ptr @Mio_LibraryReadGateByTruth(ptr noundef %0, i64 noundef %1) #0 {
  %3 = alloca ptr, align 8
  %4 = alloca ptr, align 8
  %5 = alloca i64, align 8
  %6 = alloca ptr, align 8
  %7 = alloca i32, align 4
  store ptr %0, ptr %4, align 8, !tbaa !3
  store i64 %1, ptr %5, align 8, !tbaa !54
  call void @llvm.lifetime.start.p0(i64 8, ptr %6) #6
  %8 = load ptr, ptr %4, align 8, !tbaa !3
  %9 = call ptr @Mio_LibraryReadGates(ptr noundef %8)
  store ptr %9, ptr %6, align 8, !tbaa !28
  br label %10

10:                                               ; preds = %27, %2
  %11 = load ptr, ptr %6, align 8, !tbaa !28
  %12 = icmp ne ptr %11, null
  br i1 %12, label %13, label %30

13:                                               ; preds = %10
  %14 = load ptr, ptr %6, align 8, !tbaa !28
  %15 = getelementptr inbounds nuw %struct.Mio_GateStruct_t_, ptr %14, i32 0, i32 9
  %16 = load i32, ptr %15, align 4, !tbaa !56
  %17 = icmp sle i32 %16, 6
  br i1 %17, label %18, label %26

18:                                               ; preds = %13
  %19 = load ptr, ptr %6, align 8, !tbaa !28
  %20 = getelementptr inbounds nuw %struct.Mio_GateStruct_t_, ptr %19, i32 0, i32 15
  %21 = load i64, ptr %20, align 8, !tbaa !57
  %22 = load i64, ptr %5, align 8, !tbaa !54
  %23 = icmp eq i64 %21, %22
  br i1 %23, label %24, label %26

24:                                               ; preds = %18
  %25 = load ptr, ptr %6, align 8, !tbaa !28
  store ptr %25, ptr %3, align 8
  store i32 1, ptr %7, align 4
  br label %31

26:                                               ; preds = %18, %13
  br label %27

27:                                               ; preds = %26
  %28 = load ptr, ptr %6, align 8, !tbaa !28
  %29 = call ptr @Mio_GateReadNext(ptr noundef %28)
  store ptr %29, ptr %6, align 8, !tbaa !28
  br label %10, !llvm.loop !58

30:                                               ; preds = %10
  store ptr null, ptr %3, align 8
  store i32 1, ptr %7, align 4
  br label %31

31:                                               ; preds = %30, %24
  call void @llvm.lifetime.end.p0(i64 8, ptr %6) #6
  %32 = load ptr, ptr %3, align 8
  ret ptr %32
}