; Function Attrs: nofree norecurse nosync nounwind memory(read, inaccessiblemem: none) uwtable
define ptr @Mio_LibraryReadGateByTruth(ptr noundef readonly captures(none) %0, i64 noundef %1) local_unnamed_addr #9 {
  %3 = getelementptr inbounds nuw i8, ptr %0, i64 32
  %.08 = load ptr, ptr %3, align 8, !tbaa !25
  %.not9 = icmp eq ptr %.08, null
  br i1 %.not9, label %._crit_edge, label %.lr.ph

.lr.ph:                                           ; preds = %2, %11
  %.010 = phi ptr [ %.0, %11 ], [ %.08, %2 ]
  %4 = getelementptr inbounds nuw i8, ptr %.010, i64 68
  %5 = load i32, ptr %4, align 4, !tbaa !51
  %6 = icmp slt i32 %5, 7
  br i1 %6, label %7, label %11

7:                                                ; preds = %.lr.ph
  %8 = getelementptr inbounds nuw i8, ptr %.010, i64 104
  %9 = load i64, ptr %8, align 8, !tbaa !52
  %10 = icmp eq i64 %9, %1
  br i1 %10, label %._crit_edge, label %11

11:                                               ; preds = %.lr.ph, %7
  %12 = getelementptr inbounds nuw i8, ptr %.010, i64 48
  %.0 = load ptr, ptr %12, align 8, !tbaa !25
  %.not = icmp eq ptr %.0, null
  br i1 %.not, label %._crit_edge, label %.lr.ph, !llvm.loop !53

._crit_edge:                                      ; preds = %7, %11, %2
  %.0.lcssa = phi ptr [ null, %2 ], [ null, %11 ], [ %.010, %7 ]
  ret ptr %.0.lcssa
}